; Function Attrs: nounwind uwtable
define ptr @l_Lean_PrettyPrinter_Formatter_manyNoAntiquot_formatter(ptr noundef %0, ptr noundef %1, ptr noundef %2, ptr noundef %3, ptr noundef %4, ptr noundef %5) local_unnamed_addr #0 {
  %7 = tail call ptr @l_Lean_Syntax_MonadTraverser_getCur___at_Lean_PrettyPrinter_Formatter_visitArgs___spec__1___rarg(ptr noundef %2, ptr poison, ptr poison, ptr noundef %5)
  %8 = getelementptr inbounds nuw i8, ptr %7, i64 8
  %9 = load ptr, ptr %8, align 8, !tbaa !4
  %10 = ptrtoint ptr %9 to i64
  %11 = and i64 %10, 1
  %.not = icmp eq i64 %11, 0
  br i1 %.not, label %12, label %lean_inc.exit30

12:                                               ; preds = %6
  %.val.i = load i32, ptr %9, align 4, !tbaa !8
  %13 = icmp sgt i32 %.val.i, 0
  br i1 %13, label %14, label %16, !prof !11

14:                                               ; preds = %12
  %15 = add nuw i32 %.val.i, 1
  store i32 %15, ptr %9, align 4, !tbaa !8
  br label %lean_inc.exit30

16:                                               ; preds = %12
  %.not.i34 = icmp eq i32 %.val.i, 0
  br i1 %.not.i34, label %lean_inc.exit30, label %17

17:                                               ; preds = %16
  tail call void @lean_inc_ref_cold(ptr noundef nonnull %9) #6
  br label %lean_inc.exit30

lean_inc.exit30:                                  ; preds = %17, %16, %14, %6
  %18 = getelementptr inbounds nuw i8, ptr %7, i64 16
  %19 = load ptr, ptr %18, align 8, !tbaa !4
  %20 = ptrtoint ptr %19 to i64
  %21 = and i64 %20, 1
  %.not41 = icmp eq i64 %21, 0
  br i1 %.not41, label %22, label %lean_inc.exit29

22:                                               ; preds = %lean_inc.exit30
  %.val.i35 = load i32, ptr %19, align 4, !tbaa !8
  %23 = icmp sgt i32 %.val.i35, 0
  br i1 %23, label %24, label %26, !prof !11

24:                                               ; preds = %22
  %25 = add nuw i32 %.val.i35, 1
  store i32 %25, ptr %19, align 4, !tbaa !8
  br label %lean_inc.exit29

26:                                               ; preds = %22
  %.not.i36 = icmp eq i32 %.val.i35, 0
  br i1 %.not.i36, label %lean_inc.exit29, label %27

27:                                               ; preds = %26
  tail call void @lean_inc_ref_cold(ptr noundef nonnull %19) #6
  br label %lean_inc.exit29

lean_inc.exit29:                                  ; preds = %27, %26, %24, %lean_inc.exit30
  %28 = ptrtoint ptr %7 to i64
  %29 = and i64 %28, 1
  %.not42 = icmp eq i64 %29, 0
  br i1 %.not42, label %30, label %lean_dec.exit31

30:                                               ; preds = %lean_inc.exit29
  %31 = load i32, ptr %7, align 4, !tbaa !8
  %32 = icmp sgt i32 %31, 1
  br i1 %32, label %33, label %35, !prof !11

33:                                               ; preds = %30
  %34 = add nsw i32 %31, -1
  store i32 %34, ptr %7, align 4, !tbaa !8
  br label %lean_dec.exit31

35:                                               ; preds = %30
  %.not.i = icmp eq i32 %31, 0
  br i1 %.not.i, label %lean_dec.exit31, label %36

36:                                               ; preds = %35
  tail call void @lean_dec_ref_cold(ptr noundef nonnull %7) #6
  br label %lean_dec.exit31

lean_dec.exit31:                                  ; preds = %36, %35, %33, %lean_inc.exit29
  %37 = tail call ptr @l_Lean_Syntax_getArgs(ptr noundef %9) #6
  %38 = getelementptr i8, ptr %37, i64 8
  %.val = load i64, ptr %38, align 8, !tbaa !13
  %39 = ptrtoint ptr %37 to i64
  %40 = and i64 %39, 1
  %.not43 = icmp eq i64 %40, 0
  br i1 %.not43, label %41, label %lean_inc.exit

41:                                               ; preds = %lean_dec.exit31
  %42 = load i32, ptr %37, align 4, !tbaa !8
  %43 = icmp sgt i32 %42, 1
  br i1 %43, label %44, label %46, !prof !11

44:                                               ; preds = %41
  %45 = add nsw i32 %42, -1
  store i32 %45, ptr %37, align 4, !tbaa !8
  br label %lean_inc.exit

46:                                               ; preds = %41
  %.not.i32 = icmp eq i32 %42, 0
  br i1 %.not.i32, label %lean_inc.exit, label %47

47:                                               ; preds = %46
  tail call void @lean_dec_ref_cold(ptr noundef nonnull %37) #6
  br label %lean_inc.exit

lean_inc.exit:                                    ; preds = %lean_dec.exit31, %44, %46, %47
  tail call void @lean_inc_heartbeat() #6
  %48 = tail call noalias ptr @mi_malloc_small(i64 noundef 64) #6
  %49 = icmp eq ptr %48, null
  br i1 %49, label %50, label %lean_alloc_closure.exit

50:                                               ; preds = %lean_inc.exit
  tail call void @lean_internal_panic_out_of_memory() #7
  unreachable

lean_alloc_closure.exit:                          ; preds = %lean_inc.exit
  %51 = shl i64 %.val, 1
  %52 = or disjoint i64 %51, 1
  %53 = inttoptr i64 %52 to ptr
  %54 = getelementptr inbounds nuw i8, ptr %48, i64 4
  store i32 1, ptr %48, align 4, !tbaa !8
  store i32 -184549312, ptr %54, align 4
  %55 = getelementptr inbounds nuw i8, ptr %48, i64 8
  store ptr @l_Nat_forM_loop___at_Lean_PrettyPrinter_Formatter_manyNoAntiquot_formatter___spec__1___boxed, ptr %55, align 8, !tbaa !4
  %56 = getelementptr inbounds nuw i8, ptr %48, i64 16
  store i16 10, ptr %56, align 8, !tbaa !15
  %57 = getelementptr inbounds nuw i8, ptr %48, i64 18
  store i16 5, ptr %57, align 2, !tbaa !15
  %58 = getelementptr inbounds nuw i8, ptr %48, i64 24
  store ptr %0, ptr %58, align 8, !tbaa !4
  %59 = getelementptr inbounds nuw i8, ptr %48, i64 32
  store ptr %9, ptr %59, align 8, !tbaa !4
  %60 = getelementptr inbounds nuw i8, ptr %48, i64 40
  store ptr %53, ptr %60, align 8, !tbaa !4
  %61 = getelementptr inbounds nuw i8, ptr %48, i64 48
  store ptr %53, ptr %61, align 8, !tbaa !4
  %62 = getelementptr inbounds nuw i8, ptr %48, i64 56
  store ptr inttoptr (i64 1 to ptr), ptr %62, align 8, !tbaa !4
  %63 = tail call ptr @l_Lean_PrettyPrinter_Formatter_visitArgs(ptr noundef nonnull %48, ptr noundef %1, ptr noundef %2, ptr noundef %3, ptr noundef %4, ptr noundef %19)
  ret ptr %63
}